(dp1
S'DCO_BOM_Bv6--OL_KR13_360m'
p2
(dp3
I1
I7
ssS'DCO_BOM_Bv6--OL_KR29_801m'
p4
(dp5
I1
I2
ssS'DCO_BOM_Bv6--OL_KR6_422m'
p6
(dp7
I1
I2
sI5
I1
ssS'DCO_BOM_Bv6--OL_KR1_609m'
p8
(dp9
I1
I3
sI4
I1
ssS'DCO_BOM_Bv6--OL_KR9_468m'
p10
(dp11
I1
I3
ssS'DCO_BOM_Bv6--OL_KR2_596m'
p12
(dp13
I1
I1
ssS'DCO_BOM_Bv6--OL_KR3_380m'
p14
(dp15
I2
I2
sI3
I2
ssS'DCO_BOM_Bv6--OL_KR23_424m'
p16
(dp17
I1
I1
ss.