(lp1
S'#fff7ec'
p2
ag2
ag2
ag2
ag2
ag2
ag2
ag2
ag2
ag2
ag2
ag2
aS'#f77f53'
p3
ag2
ag2
ag3
ag2
ag2
ag2
ag2
ag2
ag2
ag2
ag2
ag2
ag2
ag2
ag2
ag2
ag2
ag2
ag2
ag2
ag2
ag2
ag2
ag2
ag3
ag2
ag2
ag2
ag2
ag2
ag2
ag2
ag2
ag2
ag2
aS'#7f0000'
p4
ag2
ag2
ag2
ag2
ag2
ag2
ag2
ag2
ag2
ag2
ag2
ag2
a.