(lp1
S'#fff7ec'
p2
ag2
ag2
ag2
ag2
ag2
ag2
ag2
ag2
ag2
ag2
ag2
ag2
ag2
ag2
ag2
ag2
ag2
ag2
ag2
ag2
ag2
ag2
ag2
aS'#fcb37c'
p3
ag3
aS'#cd2316'
p4
ag4
ag2
ag2
ag2
ag2
ag2
ag2
ag4
ag4
aS'#fdd5a1'
p5
ag3
ag2
ag2
ag2
ag3
ag4
ag3
aS'#7f0000'
p6
ag2
ag4
ag4
ag4
ag3
ag4
ag3
ag2
aS'#ef6548'
p7
ag2
ag2
ag2
ag2
ag2
ag2
ag2
a.