(dp1
S'basic_reports'
p2
(dp3
S'bars'
p4
(dp5
g4
S'/Users/avoorhis/programming/vamps-node.js/public/oligotyping/projects/oligotyping-1474998378705/OLIGOTYPE/FIGURES/__default__/bars/bars'
p6
ssS'lines'
p7
(dp8
g7
S'/Users/avoorhis/programming/vamps-node.js/public/oligotyping/projects/oligotyping-1474998378705/OLIGOTYPE/FIGURES/__default__/lines/lines'
p9
ssS'stackbar'
p10
(dp11
g10
S'/Users/avoorhis/programming/vamps-node.js/public/oligotyping/projects/oligotyping-1474998378705/OLIGOTYPE/FIGURES/__default__/stackbar/stackbar'
p12
sssS'basic_analyses'
p13
(dp14
S'cluster_analysis'
p15
(dp16
S'bray'
p17
S'/Users/avoorhis/programming/vamps-node.js/public/oligotyping/projects/oligotyping-1474998378705/OLIGOTYPE/FIGURES/__default__/cluster_analysis/bray'
p18
sS'kulczynski'
p19
S'/Users/avoorhis/programming/vamps-node.js/public/oligotyping/projects/oligotyping-1474998378705/OLIGOTYPE/FIGURES/__default__/cluster_analysis/kulczynski'
p20
sS'horn'
p21
S'/Users/avoorhis/programming/vamps-node.js/public/oligotyping/projects/oligotyping-1474998378705/OLIGOTYPE/FIGURES/__default__/cluster_analysis/horn'
p22
sS'canberra'
p23
S'/Users/avoorhis/programming/vamps-node.js/public/oligotyping/projects/oligotyping-1474998378705/OLIGOTYPE/FIGURES/__default__/cluster_analysis/canberra'
p24
sS'jaccard'
p25
S'/Users/avoorhis/programming/vamps-node.js/public/oligotyping/projects/oligotyping-1474998378705/OLIGOTYPE/FIGURES/__default__/cluster_analysis/jaccard'
p26
ssS'nmds_analysis'
p27
(dp28
g17
S'/Users/avoorhis/programming/vamps-node.js/public/oligotyping/projects/oligotyping-1474998378705/OLIGOTYPE/FIGURES/__default__/nmds_analysis/bray'
p29
sg19
S'/Users/avoorhis/programming/vamps-node.js/public/oligotyping/projects/oligotyping-1474998378705/OLIGOTYPE/FIGURES/__default__/nmds_analysis/kulczynski'
p30
sg21
S'/Users/avoorhis/programming/vamps-node.js/public/oligotyping/projects/oligotyping-1474998378705/OLIGOTYPE/FIGURES/__default__/nmds_analysis/horn'
p31
sg23
S'/Users/avoorhis/programming/vamps-node.js/public/oligotyping/projects/oligotyping-1474998378705/OLIGOTYPE/FIGURES/__default__/nmds_analysis/canberra'
p32
sg25
S'/Users/avoorhis/programming/vamps-node.js/public/oligotyping/projects/oligotyping-1474998378705/OLIGOTYPE/FIGURES/__default__/nmds_analysis/jaccard'
p33
sss.