(dp1
S'A'
I0
sS'version'
p2
S'2.1'
p3
sS'matrix_count_file_path'
p4
S'/Users/avoorhis/programming/vamps-node.js/public/oligotyping/projects/oligotyping-1474998378705/OLIGOTYPE/MATRIX-COUNT.txt'
p5
sS'oligos_fasta_file_path'
p6
S'/Users/avoorhis/programming/vamps-node.js/public/oligotyping/projects/oligotyping-1474998378705/OLIGOTYPE/OLIGOS.fasta'
p7
sS'environment_file_path'
p8
S'/Users/avoorhis/programming/vamps-node.js/public/oligotyping/projects/oligotyping-1474998378705/OLIGOTYPE/ENVIRONMENT.txt'
p9
sS'entropy'
p10
S'/Users/avoorhis/programming/vamps-node.js/public/oligotyping/projects/oligotyping-1474998378705/minaligned.fa-ENTROPY'
p11
sS'final_purity_score_dict'
p12
(dp13
S'C'
F0.59999999999999998
sS'T'
F0.5
ssS'final_oligos'
p14
(lp15
S'T'
aS'C'
asS'alignment'
p16
S'/Users/avoorhis/programming/vamps-node.js/public/oligotyping/projects/oligotyping-1474998378705/minaligned.fa'
p17
sS'final_oligo_unique_distribution_dict'
p18
(dp19
S'C'
(lp20
I5
aI2
asS'T'
(lp21
I30
aI15
aI3
aI2
aI1
aI1
aI1
assS'project'
p22
S'(Comamonadaceae)-oligotyping-1474998378705'
p23
sS'final_oligo_entropy_distribution_dict'
p24
(dp25
S'C'
(lp26
F0.86309999999999998
aF0.86309999999999998
aF0.86309999999999998
aF0.86309999999999998
aF0
aF0
aF0
aF0
aF0
aF0
aF0
aF0
aF0
aF0
aF0
aF0
aF0
aF0
aF0
aF0
aF0
aF0.86309999999999998
aF0.86309999999999998
aF0
aF0.86309999999999998
aF0
aF0.86309999999999998
aF0
aF0
aF0.86309999999999998
aF0
aF0.86309999999999998
aF0
aF0.86309999999999998
aF0.86309999999999998
aF0
aF0.86309999999999998
aF0
aF0
aF0
aF0
aF0
aF0
aF0
aF0
aF0.86309999999999998
aF0
aF0
aF0
aF0.86309999999999998
aF0.86309999999999998
aF0.86309999999999998
aF0.86309999999999998
aF0
aF0
aF0
aF0
aF0
aF0
aF0
aF0
aF0
aF0
aF0
asS'T'
(lp27
F0.13500000000000001
aF0
aF0
aF0
aF0
aF0
aF0
aF0
aF0
aF0
aF0
aF0
aF0
aF0.96870000000000001
aF0.96870000000000001
aF0.96870000000000001
aF0
aF0
aF0
aF0
aF1.2031000000000001
aF0.97909999999999997
aF0.97909999999999997
aF0.44719999999999999
aF0.97909999999999997
aF0.97909999999999997
aF0
aF0
aF0
aF0
aF0
aF0
aF0.97909999999999997
aF0
aF0.44719999999999999
aF0.97909999999999997
aF0.97909999999999997
aF1.2031000000000001
aF0
aF0
aF0
aF0.88360000000000005
aF0.88360000000000005
aF0
aF0.88360000000000005
aF0.88360000000000005
aF0
aF0
aF0.88360000000000005
aF0.88360000000000005
aF0
aF0.88360000000000005
aF0.9052
aF0.13500000000000001
aF0.97909999999999997
aF0.13500000000000001
aF0
aF0.96870000000000001
aF0.96870000000000001
aF0.96870000000000001
aF0
aF0
aF0
aF0
assS'num_samples_in_fasta'
p28
I4
sS'run_date'
p29
S'27 Sep 16 14:47:19'
p30
sS'num_sequences_after_qc'
p31
I60
sS'num_oligos_after_a_elim'
p32
I2
sS'end_of_run'
p33
S'27 Sep 16 14:47:46'
p34
sS'matrix_percent_file_path'
p35
S'/Users/avoorhis/programming/vamps-node.js/public/oligotyping/projects/oligotyping-1474998378705/OLIGOTYPE/MATRIX-PERCENT.txt'
p36
sS'info_file_path'
p37
S'/Users/avoorhis/programming/vamps-node.js/public/oligotyping/projects/oligotyping-1474998378705/OLIGOTYPE/RUNINFO'
p38
sS'cmd_line'
p39
S'/opt/local/Library/Frameworks/Python.framework/Versions/2.7/bin/oligotype /Users/avoorhis/programming/vamps-node.js/public/oligotyping/projects/oligotyping-1474998378705/minaligned.fa /Users/avoorhis/programming/vamps-node.js/public/oligotyping/projects/oligotyping-1474998378705/minaligned.fa-ENTROPY --skip-check-input-file -o /Users/avoorhis/programming/vamps-node.js/public/oligotyping/projects/oligotyping-1474998378705/OLIGOTYPE -A 0 -M 0 -a 0.0 -s 2 -t __ --project (Comamonadaceae)-oligotyping-1474998378705 -C 4'
p40
sS'gexf_network_file_path'
p41
S'/Users/avoorhis/programming/vamps-node.js/public/oligotyping/projects/oligotyping-1474998378705/OLIGOTYPE/NETWORK.gexf'
p42
sS'alignment_length'
p43
I64
sS'skip_basic_analyses'
p44
I00
sS'num_unique_oligos'
p45
I2
sS'sample_mapping'
p46
NsS'num_oligos_after_M_elim'
p47
I2
sS'bases_of_interest_locs'
p48
S'4'
sS'read_distribution_table_path'
p49
S'/Users/avoorhis/programming/vamps-node.js/public/oligotyping/projects/oligotyping-1474998378705/OLIGOTYPE/READ-DISTRIBUTION.txt'
p50
sS'total_seq'
p51
I60
sS'M'
I0
sS'output_directory'
p52
S'/Users/avoorhis/programming/vamps-node.js/public/oligotyping/projects/oligotyping-1474998378705/OLIGOTYPE'
p53
sS'oligos_nexus_file_path'
p54
S'/Users/avoorhis/programming/vamps-node.js/public/oligotyping/projects/oligotyping-1474998378705/OLIGOTYPE/OLIGOS.nexus'
p55
sS'tmp_directory'
p56
S'/Users/avoorhis/programming/vamps-node.js/public/oligotyping/projects/oligotyping-1474998378705/OLIGOTYPE/TMP'
p57
sS'generate_sets'
p58
I00
sS'a'
F0
sS'number_of_selected_components'
p59
I1
sS'num_oligos_after_s_elim'
p60
I2
sS'total_purity_score_dict'
p61
S'0.50'
p62
sS'num_oligos_after_A_elim'
p63
I2
sS'figures_dict_file_path'
p64
S'/Users/avoorhis/programming/vamps-node.js/public/oligotyping/projects/oligotyping-1474998378705/OLIGOTYPE/FIGURES.cPickle'
p65
sS'quals_provided'
p66
I00
sS'number_of_auto_components'
p67
I0
sS's'
I2
sS'final_oligo_counts_dict'
p68
(dp69
S'C'
I7
sS'T'
I53
ssS'representative_seqs_fasta_file_path'
p70
S'/Users/avoorhis/programming/vamps-node.js/public/oligotyping/projects/oligotyping-1474998378705/OLIGOTYPE/OLIGO-REPRESENTATIVES.fasta'
p71
sS'multi_threaded'
p72
I01
sS'output_directory_for_reps'
p73
S'/Users/avoorhis/programming/vamps-node.js/public/oligotyping/projects/oligotyping-1474998378705/OLIGOTYPE/OLIGO-REPRESENTATIVES'
p74
sS'colors_file_path'
p75
S'/Users/avoorhis/programming/vamps-node.js/public/oligotyping/projects/oligotyping-1474998378705/OLIGOTYPE/COLORS'
p76
s.