(dp1
S'basic_reports'
p2
(dp3
S'bars'
p4
(dp5
g4
S'/Users/avoorhis/programming/vamps-node.js/public/oligotyping/projects/oligotyping-1475002307139/OLIGOTYPE/FIGURES/__default__/bars/bars'
p6
ssS'lines'
p7
(dp8
g7
S'/Users/avoorhis/programming/vamps-node.js/public/oligotyping/projects/oligotyping-1475002307139/OLIGOTYPE/FIGURES/__default__/lines/lines'
p9
ssS'stackbar'
p10
(dp11
g10
S'/Users/avoorhis/programming/vamps-node.js/public/oligotyping/projects/oligotyping-1475002307139/OLIGOTYPE/FIGURES/__default__/stackbar/stackbar'
p12
sssS'basic_analyses'
p13
(dp14
s.