(dp1
S'A'
I0
sS'version'
p2
S'2.1'
p3
sS'matrix_count_file_path'
p4
S'/Users/avoorhis/programming/vamps-node.js/public/oligotyping/projects/oligotyping-1475002307139/OLIGOTYPE/MATRIX-COUNT.txt'
p5
sS'oligos_fasta_file_path'
p6
S'/Users/avoorhis/programming/vamps-node.js/public/oligotyping/projects/oligotyping-1475002307139/OLIGOTYPE/OLIGOS.fasta'
p7
sS'environment_file_path'
p8
S'/Users/avoorhis/programming/vamps-node.js/public/oligotyping/projects/oligotyping-1475002307139/OLIGOTYPE/ENVIRONMENT.txt'
p9
sS'entropy'
p10
S'/Users/avoorhis/programming/vamps-node.js/public/oligotyping/projects/oligotyping-1475002307139/minaligned.fa-ENTROPY'
p11
sS'final_purity_score_dict'
p12
(dp13
S'TG'
p14
F0.96666666666666667
sS'GA'
p15
F1
sS'CT'
p16
F0.80000000000000004
ssS'final_oligos'
p17
(lp18
g14
ag16
ag15
asS'alignment'
p19
S'/Users/avoorhis/programming/vamps-node.js/public/oligotyping/projects/oligotyping-1475002307139/minaligned.fa'
p20
sS'final_oligo_unique_distribution_dict'
p21
(dp22
g14
(lp23
I30
aI1
asg15
(lp24
I5
asg16
(lp25
I15
aI3
aI2
aI1
aI1
assS'project'
p26
S'(Comamonadaceae)-oligotyping-1475002307139'
p27
sS'final_oligo_entropy_distribution_dict'
p28
(dp29
S'TG'
p30
(lp31
F0
aF0
aF0
aF0
aF0
aF0
aF0
aF0
aF0
aF0
aF0
aF0
aF0
aF0
aF0
aF0
aF0
aF0
aF0
aF0
aF0
aF0
aF0
aF0
aF0
aF0
aF0
aF0
aF0
aF0
aF0
aF0
aF0
aF0
aF0
aF0
aF0
aF0
aF0
aF0
aF0
aF0
aF0
aF0
aF0
aF0
aF0
aF0
aF0
aF0
aF0
aF0
aF0.2056
aF0.2056
aF0.2056
aF0.2056
aF0
aF0
aF0
aF0
aF0
aF0
aF0
aF0
asS'GA'
p32
(lp33
F0
aF0
aF0
aF0
aF0
aF0
aF0
aF0
aF0
aF0
aF0
aF0
aF0
aF0
aF0
aF0
aF0
aF0
aF0
aF0
aF0
aF0
aF0
aF0
aF0
aF0
aF0
aF0
aF0
aF0
aF0
aF0
aF0
aF0
aF0
aF0
aF0
aF0
aF0
aF0
aF0
aF0
aF0
aF0
aF0
aF0
aF0
aF0
aF0
aF0
aF0
aF0
aF0
aF0
aF0
aF0
aF0
aF0
aF0
aF0
aF0
aF0
aF0
aF0
asS'CT'
p34
(lp35
F0.26679999999999998
aF0
aF0
aF0
aF0
aF0
aF0
aF0
aF0
aF0
aF0
aF0
aF0
aF0.26679999999999998
aF0.26679999999999998
aF0.26679999999999998
aF0
aF0
aF0
aF0
aF0.83150000000000002
aF0
aF0
aF0.83150000000000002
aF0
aF0
aF0
aF0
aF0
aF0
aF0
aF0
aF0
aF0
aF0.83150000000000002
aF0
aF0
aF0.83150000000000002
aF0
aF0
aF0
aF0.84540000000000004
aF0.84540000000000004
aF0
aF0.84540000000000004
aF0.84540000000000004
aF0
aF0
aF0.84540000000000004
aF0.84540000000000004
aF0
aF0.84540000000000004
aF0.84540000000000004
aF0
aF0.26679999999999998
aF0
aF0
aF0.26679999999999998
aF0.26679999999999998
aF0.26679999999999998
aF0
aF0
aF0
aF0
assS'num_samples_in_fasta'
p36
I4
sS'run_date'
p37
S'27 Sep 16 15:59:22'
p38
sS'num_sequences_after_qc'
p39
I58
sS'num_oligos_after_a_elim'
p40
I3
sS'end_of_run'
p41
S'27 Sep 16 15:59:49'
p42
sS'matrix_percent_file_path'
p43
S'/Users/avoorhis/programming/vamps-node.js/public/oligotyping/projects/oligotyping-1475002307139/OLIGOTYPE/MATRIX-PERCENT.txt'
p44
sS'info_file_path'
p45
S'/Users/avoorhis/programming/vamps-node.js/public/oligotyping/projects/oligotyping-1475002307139/OLIGOTYPE/RUNINFO'
p46
sS'cmd_line'
p47
S'/opt/local/Library/Frameworks/Python.framework/Versions/2.7/bin/oligotype /Users/avoorhis/programming/vamps-node.js/public/oligotyping/projects/oligotyping-1475002307139/minaligned.fa /Users/avoorhis/programming/vamps-node.js/public/oligotyping/projects/oligotyping-1475002307139/minaligned.fa-ENTROPY --skip-check-input-file -o /Users/avoorhis/programming/vamps-node.js/public/oligotyping/projects/oligotyping-1475002307139/OLIGOTYPE -A 0 -M 0 -a 0.0 -s 2 -t __ --project (Comamonadaceae)-oligotyping-1475002307139 -c 2'
p48
sS'gexf_network_file_path'
p49
S'/Users/avoorhis/programming/vamps-node.js/public/oligotyping/projects/oligotyping-1475002307139/OLIGOTYPE/NETWORK.gexf'
p50
sS'alignment_length'
p51
I64
sS'skip_basic_analyses'
p52
I00
sS'num_unique_oligos'
p53
I4
sS'sample_mapping'
p54
NsS'num_oligos_after_M_elim'
p55
I3
sS'bases_of_interest_locs'
p56
S'24, 36'
p57
sS'read_distribution_table_path'
p58
S'/Users/avoorhis/programming/vamps-node.js/public/oligotyping/projects/oligotyping-1475002307139/OLIGOTYPE/READ-DISTRIBUTION.txt'
p59
sS'total_seq'
p60
I60
sS'M'
I0
sS'output_directory'
p61
S'/Users/avoorhis/programming/vamps-node.js/public/oligotyping/projects/oligotyping-1475002307139/OLIGOTYPE'
p62
sS'oligos_nexus_file_path'
p63
S'/Users/avoorhis/programming/vamps-node.js/public/oligotyping/projects/oligotyping-1475002307139/OLIGOTYPE/OLIGOS.nexus'
p64
sS'tmp_directory'
p65
S'/Users/avoorhis/programming/vamps-node.js/public/oligotyping/projects/oligotyping-1475002307139/OLIGOTYPE/TMP'
p66
sS'generate_sets'
p67
I00
sS'a'
F0
sS'number_of_selected_components'
p68
I0
sS'num_oligos_after_s_elim'
p69
I3
sS'total_purity_score_dict'
p70
S'0.80'
p71
sS'num_oligos_after_A_elim'
p72
I3
sS'figures_dict_file_path'
p73
S'/Users/avoorhis/programming/vamps-node.js/public/oligotyping/projects/oligotyping-1475002307139/OLIGOTYPE/FIGURES.cPickle'
p74
sS'quals_provided'
p75
I00
sS'number_of_auto_components'
p76
I2
sS's'
I2
sS'final_oligo_counts_dict'
p77
(dp78
g14
I31
sg15
I5
sg16
I22
ssS'representative_seqs_fasta_file_path'
p79
S'/Users/avoorhis/programming/vamps-node.js/public/oligotyping/projects/oligotyping-1475002307139/OLIGOTYPE/OLIGO-REPRESENTATIVES.fasta'
p80
sS'multi_threaded'
p81
I01
sS'output_directory_for_reps'
p82
S'/Users/avoorhis/programming/vamps-node.js/public/oligotyping/projects/oligotyping-1475002307139/OLIGOTYPE/OLIGO-REPRESENTATIVES'
p83
sS'colors_file_path'
p84
S'/Users/avoorhis/programming/vamps-node.js/public/oligotyping/projects/oligotyping-1475002307139/OLIGOTYPE/COLORS'
p85
s.