(dp1
S'A'
I0
sS'version'
p2
S'2.1'
p3
sS'matrix_count_file_path'
p4
S'/Users/avoorhis/programming/vamps-node.js/public/oligotyping/projects/oligotyping-1475002307139/OLIGOTYPE/MATRIX-COUNT.txt'
p5
sS'oligos_fasta_file_path'
p6
S'/Users/avoorhis/programming/vamps-node.js/public/oligotyping/projects/oligotyping-1475002307139/OLIGOTYPE/OLIGOS.fasta'
p7
sS'environment_file_path'
p8
S'/Users/avoorhis/programming/vamps-node.js/public/oligotyping/projects/oligotyping-1475002307139/OLIGOTYPE/ENVIRONMENT.txt'
p9
sS'entropy'
p10
S'/Users/avoorhis/programming/vamps-node.js/public/oligotyping/projects/oligotyping-1475002307139/minaligned.fa-ENTROPY'
p11
sS'final_purity_score_dict'
p12
(dp13
S'AC'
p14
F0.5
ssS'final_oligos'
p15
(lp16
g14
asS'alignment'
p17
S'/Users/avoorhis/programming/vamps-node.js/public/oligotyping/projects/oligotyping-1475002307139/minaligned.fa'
p18
sS'final_oligo_unique_distribution_dict'
p19
(dp20
g14
(lp21
I30
aI15
aI5
aI3
aI2
aI1
aI1
aI1
assS'project'
p22
S'(Comamonadaceae)-oligotyping-1475002307139'
p23
sS'final_oligo_entropy_distribution_dict'
p24
(dp25
S'AC'
p26
(lp27
F0.54710000000000003
aF0
aF0
aF0
aF0.42370000000000002
aF0
aF0
aF0
aF0
aF0
aF0
aF0
aF0
aF0.94440000000000002
aF0.99229999999999996
aF0.99229999999999996
aF0
aF0
aF0
aF0
aF1.1586000000000001
aF0.99660000000000004
aF0.95760000000000001
aF0.41799999999999998
aF1.3184
aF0.99660000000000004
aF0
aF0
aF0
aF0
aF0
aF0
aF0.99660000000000004
aF0.42370000000000002
aF0.83240000000000003
aF0.95760000000000001
aF1.3184
aF1.1586000000000001
aF0
aF0
aF0
aF0.8498
aF0.8498
aF0
aF0.8498
aF0.8498
aF0
aF0
aF0.8498
aF0.8498
aF0
aF0.8498
aF0.87270000000000003
aF0.12570000000000001
aF0.99660000000000004
aF0.12570000000000001
aF0
aF0.99229999999999996
aF0.99229999999999996
aF0.94440000000000002
aF0
aF0
aF0
aF0
assS'num_samples_in_fasta'
p28
I4
sS'run_date'
p29
S'27 Sep 16 14:55:00'
p30
sS'num_sequences_after_qc'
p31
I58
sS'num_oligos_after_a_elim'
p32
I1
sS'end_of_run'
p33
S'27 Sep 16 14:55:07'
p34
sS'matrix_percent_file_path'
p35
S'/Users/avoorhis/programming/vamps-node.js/public/oligotyping/projects/oligotyping-1475002307139/OLIGOTYPE/MATRIX-PERCENT.txt'
p36
sS'info_file_path'
p37
S'/Users/avoorhis/programming/vamps-node.js/public/oligotyping/projects/oligotyping-1475002307139/OLIGOTYPE/RUNINFO'
p38
sS'cmd_line'
p39
S'/opt/local/Library/Frameworks/Python.framework/Versions/2.7/bin/oligotype /Users/avoorhis/programming/vamps-node.js/public/oligotyping/projects/oligotyping-1475002307139/minaligned.fa /Users/avoorhis/programming/vamps-node.js/public/oligotyping/projects/oligotyping-1475002307139/minaligned.fa-ENTROPY --skip-check-input-file -o /Users/avoorhis/programming/vamps-node.js/public/oligotyping/projects/oligotyping-1475002307139/OLIGOTYPE -A 0 -M 0 -a 0.0 -s 2 -t __ --project (Comamonadaceae)-oligotyping-1475002307139 -C 1,2'
p40
sS'gexf_network_file_path'
p41
S'/Users/avoorhis/programming/vamps-node.js/public/oligotyping/projects/oligotyping-1475002307139/OLIGOTYPE/NETWORK.gexf'
p42
sS'alignment_length'
p43
I64
sS'skip_basic_analyses'
p44
I01
sS'num_unique_oligos'
p45
I2
sS'sample_mapping'
p46
NsS'num_oligos_after_M_elim'
p47
I1
sS'bases_of_interest_locs'
p48
S'1, 2'
p49
sS'read_distribution_table_path'
p50
S'/Users/avoorhis/programming/vamps-node.js/public/oligotyping/projects/oligotyping-1475002307139/OLIGOTYPE/READ-DISTRIBUTION.txt'
p51
sS'total_seq'
p52
I60
sS'M'
I0
sS'output_directory'
p53
S'/Users/avoorhis/programming/vamps-node.js/public/oligotyping/projects/oligotyping-1475002307139/OLIGOTYPE'
p54
sS'oligos_nexus_file_path'
p55
S'/Users/avoorhis/programming/vamps-node.js/public/oligotyping/projects/oligotyping-1475002307139/OLIGOTYPE/OLIGOS.nexus'
p56
sS'tmp_directory'
p57
S'/Users/avoorhis/programming/vamps-node.js/public/oligotyping/projects/oligotyping-1475002307139/OLIGOTYPE/TMP'
p58
sS'generate_sets'
p59
I00
sS'a'
F0
sS'number_of_selected_components'
p60
I2
sS'num_oligos_after_s_elim'
p61
I1
sS'total_purity_score_dict'
p62
S'0.50'
p63
sS'num_oligos_after_A_elim'
p64
I1
sS'figures_dict_file_path'
p65
S'/Users/avoorhis/programming/vamps-node.js/public/oligotyping/projects/oligotyping-1475002307139/OLIGOTYPE/FIGURES.cPickle'
p66
sS'quals_provided'
p67
I00
sS'number_of_auto_components'
p68
I0
sS's'
I2
sS'final_oligo_counts_dict'
p69
(dp70
g14
I58
ssS'representative_seqs_fasta_file_path'
p71
S'/Users/avoorhis/programming/vamps-node.js/public/oligotyping/projects/oligotyping-1475002307139/OLIGOTYPE/OLIGO-REPRESENTATIVES.fasta'
p72
sS'multi_threaded'
p73
I01
sS'output_directory_for_reps'
p74
S'/Users/avoorhis/programming/vamps-node.js/public/oligotyping/projects/oligotyping-1475002307139/OLIGOTYPE/OLIGO-REPRESENTATIVES'
p75
sS'colors_file_path'
p76
S'/Users/avoorhis/programming/vamps-node.js/public/oligotyping/projects/oligotyping-1475002307139/OLIGOTYPE/COLORS'
p77
s.