(lp1
S'#fdd09a'
p2
aS'#fff7ec'
p3
ag3
ag3
ag3
ag3
ag3
ag3
ag3
ag3
ag3
ag3
ag3
ag2
ag2
ag2
ag3
ag3
ag3
ag3
aS'#bf10a0'
p4
ag3
ag3
ag4
ag3
ag3
ag3
ag3
ag3
ag3
ag3
ag3
ag3
ag3
ag4
ag3
ag3
ag4
ag3
ag3
ag3
aS'#bbb700'
p5
ag5
ag3
ag5
ag5
ag3
ag3
ag5
ag5
ag3
ag5
ag5
ag3
ag2
ag3
ag3
ag2
ag2
ag2
ag3
ag3
ag3
ag3
a.