(lp1
S'#fcac76'
p2
aS'#fff7ec'
p3
ag3
ag3
aS'#fdc58f'
p4
ag3
ag3
ag3
ag3
ag3
ag3
ag3
ag3
aS'#dd3e2a'
p5
aS'#d62e1e'
p6
ag6
ag3
ag3
ag3
ag3
aS'#b10000'
p7
aS'#d52d1d'
p8
aS'#db3a26'
p9
aS'#fdc690'
p10
aS'#7f0000'
p11
ag8
ag3
ag3
ag3
ag3
ag3
ag3
ag8
ag4
aS'#ed6245'
p12
ag9
ag11
ag7
ag3
ag3
ag3
aS'#eb5c41'
p13
ag13
ag3
ag13
ag13
ag3
ag3
ag13
ag13
ag3
ag13
aS'#e7553b'
p14
aS'#feebd0'
p15
ag8
ag15
ag3
ag6
ag6
ag5
ag3
ag3
ag3
ag3
a.