(dp1
S'ICM_LCY_Bv6--LCY_0007_2003_05_04'
p2
(dp3
I1
I11
sI2
I1
ssS'ICM_LCY_Bv6--LCY_0003_2003_05_04'
p4
(dp5
I1
I2
ssS'ICM_LCY_Bv6--LCY_0001_2003_05_11'
p6
(dp7
I1
I4
ssS'ICM_LCY_Bv6--LCY_0005_2003_05_16'
p8
(dp9
I1
I13
ss.