(dp1
S'A'
I0
sS'version'
p2
S'2.1'
p3
sS'matrix_count_file_path'
p4
S'/usr/local/www/vampsdev/projects/vamps-node.js/public/oligotyping/projects/andy_OLIGOTYPING_1474656828888/MATRIX-COUNT.txt'
p5
sS'oligos_fasta_file_path'
p6
S'/usr/local/www/vampsdev/projects/vamps-node.js/public/oligotyping/projects/andy_OLIGOTYPING_1474656828888/OLIGOS.fasta'
p7
sS'environment_file_path'
p8
S'/usr/local/www/vampsdev/projects/vamps-node.js/public/oligotyping/projects/andy_OLIGOTYPING_1474656828888/ENVIRONMENT.txt'
p9
sS'entropy'
p10
S'/groups/vampsweb/vampsdev_node_data/user_data/andy/oligotyping-1474656828888/minaligned.fa-ENTROPY'
p11
sS'final_purity_score_dict'
p12
(dp13
S'TT'
p14
F0
sS'T-'
p15
F1
sS'AT'
p16
F0.984375
sS'TC'
p17
F0.89473684210526316
ssS'final_oligos'
p18
(lp19
g16
ag17
ag14
ag15
asS'alignment'
p20
S'/groups/vampsweb/vampsdev_node_data/user_data/andy/oligotyping-1474656828888/minaligned.fa'
p21
sS'final_oligo_unique_distribution_dict'
p22
(dp23
g14
(lp24
I1
aI1
aI1
aI1
asg15
(lp25
I3
asg16
(lp26
I64
aI1
aI1
asg17
(lp27
I19
aI2
aI2
aI1
aI1
assS'project'
p28
S'(Geodermatophilaceae)-oligotyping-1474656828888'
p29
sS'final_oligo_entropy_distribution_dict'
p30
(dp31
S'TT'
p32
(lp33
F0
aF0
aF0
aF0
aF0
aF0
aF0
aF0
aF0
aF0
aF0
aF0
aF0.81130000000000002
aF0
aF0
aF0.81130000000000002
aF0
aF0
aF0
aF0
aF0
aF0
aF0
aF0
aF0
aF0
aF0
aF0
aF0
aF0
aF0
aF0
aF0
aF0
aF0
aF0
aF0
aF0.81130000000000002
aF0
aF0
aF0
aF0
aF0
aF0
aF0
aF0
aF0
aF0
aF1.5
aF0
aF0
aF0
aF0
aF0
aF0
aF0
aF0
aF0
aF0
aF0
aF0
asS'T-'
p34
(lp35
F0
aF0
aF0
aF0
aF0
aF0
aF0
aF0
aF0
aF0
aF0
aF0
aF0
aF0
aF0
aF0
aF0
aF0
aF0
aF0
aF0
aF0
aF0
aF0
aF0
aF0
aF0
aF0
aF0
aF0
aF0
aF0
aF0
aF0
aF0
aF0
aF0
aF0
aF0
aF0
aF0
aF0
aF0
aF0
aF0
aF0
aF0
aF0
aF0
aF0
aF0
aF0
aF0
aF0
aF0
aF0
aF0
aF0
aF0
aF0
aF0
asS'TC'
p36
(lp37
F0
aF0
aF0
aF0
aF0
aF0
aF0
aF0
aF0
aF0
aF0
aF0
aF0
aF0
aF0
aF0
aF0
aF0
aF0
aF0
aF0
aF0
aF0
aF0
aF0.4022
aF0.4022
aF0.79500000000000004
aF0.79500000000000004
aF0
aF0
aF0
aF0
aF0
aF0
aF0.79500000000000004
aF0.79500000000000004
aF0.24229999999999999
aF0.4022
aF0
aF0
aF0
aF0.4022
aF0.79500000000000004
aF0.4022
aF1.0154000000000001
aF0
aF0.79500000000000004
aF0.79500000000000004
aF0.79500000000000004
aF0.4022
aF0.79500000000000004
aF0.4022
aF0
aF0.63429999999999997
aF0
aF0
aF0
aF0
aF0
aF0
aF0
asS'AT'
p38
(lp39
F0
aF0
aF0
aF0
aF0
aF0
aF0
aF0
aF0
aF0
aF0
aF0
aF0
aF0
aF0
aF0
aF0
aF0
aF0
aF0
aF0
aF0
aF0
aF0
aF0
aF0
aF0
aF0
aF0
aF0
aF0
aF0
aF0
aF0
aF0
aF0
aF0
aF0.1133
aF0
aF0
aF0
aF0
aF0
aF0
aF0
aF0.1133
aF0
aF0
aF0
aF0
aF0
aF0
aF0
aF0
aF0
aF0
aF0
aF0
aF0
aF0
aF0
assS'num_samples_in_fasta'
p40
I10
sS'run_date'
p41
S'26 Sep 16 11:20:20'
p42
sS'num_sequences_after_qc'
p43
I98
sS'num_oligos_after_a_elim'
p44
I4
sS'end_of_run'
p45
S'26 Sep 16 11:21:12'
p46
sS'matrix_percent_file_path'
p47
S'/usr/local/www/vampsdev/projects/vamps-node.js/public/oligotyping/projects/andy_OLIGOTYPING_1474656828888/MATRIX-PERCENT.txt'
p48
sS'info_file_path'
p49
S'/usr/local/www/vampsdev/projects/vamps-node.js/public/oligotyping/projects/andy_OLIGOTYPING_1474656828888/RUNINFO'
p50
sS'cmd_line'
p51
S'/groups/vampsweb/vampsdev_node_data/scripts/oligotype_start /groups/vampsweb/vampsdev_node_data/user_data/andy/oligotyping-1474656828888/minaligned.fa /groups/vampsweb/vampsdev_node_data/user_data/andy/oligotyping-1474656828888/minaligned.fa-ENTROPY --skip-check-input-file -o /usr/local/www/vampsdev/projects/vamps-node.js/public/oligotyping/projects/andy_OLIGOTYPING_1474656828888 -A 0 -M 0 -a 0.0 -s 2 -t __ --project (Geodermatophilaceae)-oligotyping-1474656828888 -c 2'
p52
sS'gexf_network_file_path'
p53
S'/usr/local/www/vampsdev/projects/vamps-node.js/public/oligotyping/projects/andy_OLIGOTYPING_1474656828888/NETWORK.gexf'
p54
sS'alignment_length'
p55
I61
sS'skip_basic_analyses'
p56
I00
sS'num_unique_oligos'
p57
I4
sS'sample_mapping'
p58
NsS'num_oligos_after_M_elim'
p59
I4
sS'bases_of_interest_locs'
p60
S'0, 13'
p61
sS'read_distribution_table_path'
p62
S'/usr/local/www/vampsdev/projects/vamps-node.js/public/oligotyping/projects/andy_OLIGOTYPING_1474656828888/READ-DISTRIBUTION.txt'
p63
sS'total_seq'
p64
I98
sS'M'
I0
sS'output_directory'
p65
S'/usr/local/www/vampsdev/projects/vamps-node.js/public/oligotyping/projects/andy_OLIGOTYPING_1474656828888'
p66
sS'oligos_nexus_file_path'
p67
S'/usr/local/www/vampsdev/projects/vamps-node.js/public/oligotyping/projects/andy_OLIGOTYPING_1474656828888/OLIGOS.nexus'
p68
sS'tmp_directory'
p69
S'/usr/local/www/vampsdev/projects/vamps-node.js/public/oligotyping/projects/andy_OLIGOTYPING_1474656828888/TMP'
p70
sS'generate_sets'
p71
I00
sS'a'
F0
sS'number_of_selected_components'
p72
I0
sS'num_oligos_after_s_elim'
p73
I4
sS'total_purity_score_dict'
p74
S'0.00'
p75
sS'num_oligos_after_A_elim'
p76
I4
sS'figures_dict_file_path'
p77
S'/usr/local/www/vampsdev/projects/vamps-node.js/public/oligotyping/projects/andy_OLIGOTYPING_1474656828888/FIGURES.cPickle'
p78
sS'quals_provided'
p79
I00
sS'number_of_auto_components'
p80
I2
sS's'
I2
sS'final_oligo_counts_dict'
p81
(dp82
g14
I4
sg15
I3
sg16
I66
sg17
I25
ssS'representative_seqs_fasta_file_path'
p83
S'/usr/local/www/vampsdev/projects/vamps-node.js/public/oligotyping/projects/andy_OLIGOTYPING_1474656828888/OLIGO-REPRESENTATIVES.fasta'
p84
sS'multi_threaded'
p85
I01
sS'output_directory_for_reps'
p86
S'/usr/local/www/vampsdev/projects/vamps-node.js/public/oligotyping/projects/andy_OLIGOTYPING_1474656828888/OLIGO-REPRESENTATIVES'
p87
sS'colors_file_path'
p88
S'/usr/local/www/vampsdev/projects/vamps-node.js/public/oligotyping/projects/andy_OLIGOTYPING_1474656828888/COLORS'
p89
s.