(lp1
S'#fee9cb'
p2
aS'#fff7ec'
p3
ag3
ag3
ag3
ag3
ag3
ag3
ag3
ag3
ag3
ag3
ag3
aS'#c71a11'
p4
ag4
ag4
ag3
ag3
ag3
ag3
aS'#7f0000'
p5
aS'#c417f0'
p6
ag6
aS'#fdbb84'
p7
ag6
ag6
ag3
ag3
ag3
ag3
ag3
ag3
ag6
ag3
ag7
ag6
ag6
ag5
ag3
ag3
ag3
aS'#d93624'
p8
ag8
ag3
ag8
ag8
ag3
ag3
ag8
ag8
ag3
ag8
aS'#d62f1e'
p9
ag2
ag6
ag2
ag3
ag4
ag4
ag4
ag3
ag3
ag3
ag3
a.